target datalayout = "e-m:e-p270:32:32-p271:32:32-p272:64:64-i64:64-i128:128-f80:128-n8:16:32:64-S128"
target triple = "x86_64-pc-linux-gnu"

@.str = private unnamed_addr constant [34 x i8] c"../openssl/test/servername_test.c\00", align 1
@.str.5 = private unnamed_addr constant [4 x i8] c"ctx\00", align 1
@maxversion = internal global i32 0, align 4
@.str.6 = private unnamed_addr constant [47 x i8] c"SSL_CTX_set_max_proto_version(ctx, maxversion)\00", align 1
@.str.7 = private unnamed_addr constant [4 x i8] c"con\00", align 1
@host = internal global ptr @.str.15, align 8
@.str.8 = private unnamed_addr constant [5 x i8] c"rbio\00", align 1
@.str.9 = private unnamed_addr constant [5 x i8] c"wbio\00", align 1
@.str.10 = private unnamed_addr constant [17 x i8] c"SSL_connect(con)\00", align 1
@.str.11 = private unnamed_addr constant [2 x i8] c"0\00", align 1
@.str.12 = private unnamed_addr constant [43 x i8] c"get_sni_from_client_hello(wbio, &hostname)\00", align 1
@.str.13 = private unnamed_addr constant [9 x i8] c"hostname\00", align 1
@.str.14 = private unnamed_addr constant [5 x i8] c"host\00", align 1

; Function Attrs: nounwind uwtable
define internal i32 @client_setup_sni_before_state() #0 {
  %1 = alloca ptr, align 8
  %2 = alloca ptr, align 8
  %3 = alloca ptr, align 8
  %4 = alloca ptr, align 8
  %5 = alloca ptr, align 8
  %6 = alloca i32, align 4
  call void @llvm.lifetime.start.p0(i64 8, ptr %1) #7
  call void @llvm.lifetime.start.p0(i64 8, ptr %2) #7
  store ptr null, ptr %2, align 8, !tbaa !12
  call void @llvm.lifetime.start.p0(i64 8, ptr %3) #7
  call void @llvm.lifetime.start.p0(i64 8, ptr %4) #7
  call void @llvm.lifetime.start.p0(i64 8, ptr %5) #7
  store ptr null, ptr %5, align 8, !tbaa !4
  call void @llvm.lifetime.start.p0(i64 4, ptr %6) #7
  store i32 0, ptr %6, align 4, !tbaa !9
  %7 = call ptr @TLS_method()
  %8 = call ptr @SSL_CTX_new(ptr noundef %7)
  store ptr %8, ptr %1, align 8, !tbaa !14
  %9 = load ptr, ptr %1, align 8, !tbaa !14
  %10 = call i32 @test_ptr(ptr noundef @.str, i32 noundef 108, ptr noundef @.str.5, ptr noundef %9)
  %11 = icmp ne i32 %10, 0
  br i1 %11, label %13, label %12

12:                                               ; preds = %0
  br label %77

13:                                               ; preds = %0
  %14 = load i32, ptr @maxversion, align 4, !tbaa !9
  %15 = icmp sgt i32 %14, 0
  br i1 %15, label %16, label %26

16:                                               ; preds = %13
  %17 = load ptr, ptr %1, align 8, !tbaa !14
  %18 = load i32, ptr @maxversion, align 4, !tbaa !9
  %19 = sext i32 %18 to i64
  %20 = call i64 @SSL_CTX_ctrl(ptr noundef %17, i32 noundef 124, i64 noundef %19, ptr noundef null)
  %21 = icmp ne i64 %20, 0
  %22 = zext i1 %21 to i32
  %23 = call i32 @test_true(ptr noundef @.str, i32 noundef 112, ptr noundef @.str.6, i32 noundef %22)
  %24 = icmp ne i32 %23, 0
  br i1 %24, label %26, label %25

25:                                               ; preds = %16
  br label %77

26:                                               ; preds = %16, %13
  %27 = load ptr, ptr %1, align 8, !tbaa !14
  %28 = call ptr @SSL_new(ptr noundef %27)
  store ptr %28, ptr %2, align 8, !tbaa !12
  %29 = load ptr, ptr %2, align 8, !tbaa !12
  %30 = call i32 @test_ptr(ptr noundef @.str, i32 noundef 116, ptr noundef @.str.7, ptr noundef %29)
  %31 = icmp ne i32 %30, 0
  br i1 %31, label %33, label %32

32:                                               ; preds = %26
  br label %77

33:                                               ; preds = %26
  %34 = load ptr, ptr %2, align 8, !tbaa !12
  %35 = load ptr, ptr @host, align 8, !tbaa !4
  %36 = call i64 @SSL_ctrl(ptr noundef %34, i32 noundef 55, i64 noundef 0, ptr noundef %35)
  %37 = call ptr @BIO_s_mem()
  %38 = call ptr @BIO_new(ptr noundef %37)
  store ptr %38, ptr %3, align 8, !tbaa !16
  %39 = call ptr @BIO_s_mem()
  %40 = call ptr @BIO_new(ptr noundef %39)
  store ptr %40, ptr %4, align 8, !tbaa !16
  %41 = load ptr, ptr %3, align 8, !tbaa !16
  %42 = call i32 @test_ptr(ptr noundef @.str, i32 noundef 124, ptr noundef @.str.8, ptr noundef %41)
  %43 = icmp ne i32 %42, 0
  br i1 %43, label %44, label %48

44:                                               ; preds = %33
  %45 = load ptr, ptr %4, align 8, !tbaa !16
  %46 = call i32 @test_ptr(ptr noundef @.str, i32 noundef 124, ptr noundef @.str.9, ptr noundef %45)
  %47 = icmp ne i32 %46, 0
  br i1 %47, label %53, label %48

48:                                               ; preds = %44, %33
  %49 = load ptr, ptr %3, align 8, !tbaa !16
  %50 = call i32 @BIO_free(ptr noundef %49)
  %51 = load ptr, ptr %4, align 8, !tbaa !16
  %52 = call i32 @BIO_free(ptr noundef %51)
  br label %77

53:                                               ; preds = %44
  %54 = load ptr, ptr %2, align 8, !tbaa !12
  %55 = load ptr, ptr %3, align 8, !tbaa !16
  %56 = load ptr, ptr %4, align 8, !tbaa !16
  call void @SSL_set_bio(ptr noundef %54, ptr noundef %55, ptr noundef %56)
  %57 = load ptr, ptr %2, align 8, !tbaa !12
  %58 = call i32 @SSL_connect(ptr noundef %57)
  %59 = call i32 @test_int_le(ptr noundef @.str, i32 noundef 132, ptr noundef @.str.10, ptr noundef @.str.11, i32 noundef %58, i32 noundef 0)
  %60 = icmp ne i32 %59, 0
  br i1 %60, label %62, label %61

61:                                               ; preds = %53
  br label %77

62:                                               ; preds = %53
  %63 = load ptr, ptr %4, align 8, !tbaa !16
  %64 = call i32 @get_sni_from_client_hello(ptr noundef %63, ptr noundef %5)
  %65 = icmp ne i32 %64, 0
  %66 = zext i1 %65 to i32
  %67 = call i32 @test_true(ptr noundef @.str, i32 noundef 135, ptr noundef @.str.12, i32 noundef %66)
  %68 = icmp ne i32 %67, 0
  br i1 %68, label %70, label %69

69:                                               ; preds = %62
  br label %77

70:                                               ; preds = %62
  %71 = load ptr, ptr %5, align 8, !tbaa !4
  %72 = load ptr, ptr @host, align 8, !tbaa !4
  %73 = call i32 @test_str_eq(ptr noundef @.str, i32 noundef 138, ptr noundef @.str.13, ptr noundef @.str.14, ptr noundef %71, ptr noundef %72)
  %74 = icmp ne i32 %73, 0
  br i1 %74, label %76, label %75

75:                                               ; preds = %70
  br label %77

76:                                               ; preds = %70
  store i32 1, ptr %6, align 4, !tbaa !9
  br label %77

77:                                               ; preds = %76, %75, %69, %61, %48, %32, %25, %12
  %78 = load ptr, ptr %5, align 8, !tbaa !4
  call void @CRYPTO_free(ptr noundef %78, ptr noundef @.str, i32 noundef 143)
  %79 = load ptr, ptr %2, align 8, !tbaa !12
  call void @SSL_free(ptr noundef %79)
  %80 = load ptr, ptr %1, align 8, !tbaa !14
  call void @SSL_CTX_free(ptr noundef %80)
  %81 = load i32, ptr %6, align 4, !tbaa !9
  call void @llvm.lifetime.end.p0(i64 4, ptr %6) #7
  call void @llvm.lifetime.end.p0(i64 8, ptr %5) #7
  call void @llvm.lifetime.end.p0(i64 8, ptr %4) #7
  call void @llvm.lifetime.end.p0(i64 8, ptr %3) #7
  call void @llvm.lifetime.end.p0(i64 8, ptr %2) #7
  call void @llvm.lifetime.end.p0(i64 8, ptr %1) #7
  ret i32 %81
}