; Function Attrs: nounwind uwtable
define internal range(i32 0, 2) i32 @client_setup_sni_before_state() #0 {
  %1 = alloca ptr, align 8
  call void @llvm.lifetime.start.p0(i64 8, ptr nonnull %1) #5
  store ptr null, ptr %1, align 8, !tbaa !4
  %2 = tail call ptr @TLS_method() #5
  %3 = tail call ptr @SSL_CTX_new(ptr noundef %2) #5
  %4 = tail call i32 @test_ptr(ptr noundef nonnull @.str, i32 noundef 108, ptr noundef nonnull @.str.5, ptr noundef %3) #5
  %.not = icmp eq i32 %4, 0
  br i1 %.not, label %28, label %5

5:                                                ; preds = %0
  %6 = tail call ptr @SSL_new(ptr noundef %3) #5
  %7 = tail call i32 @test_ptr(ptr noundef nonnull @.str, i32 noundef 116, ptr noundef nonnull @.str.7, ptr noundef %6) #5
  %.not18 = icmp eq i32 %7, 0
  br i1 %.not18, label %28, label %8

8:                                                ; preds = %5
  %9 = tail call i64 @SSL_ctrl(ptr noundef %6, i32 noundef 55, i64 noundef 0, ptr noundef nonnull @.str.15) #5
  %10 = tail call ptr @BIO_s_mem() #5
  %11 = tail call ptr @BIO_new(ptr noundef %10) #5
  %12 = tail call ptr @BIO_s_mem() #5
  %13 = tail call ptr @BIO_new(ptr noundef %12) #5
  %14 = tail call i32 @test_ptr(ptr noundef nonnull @.str, i32 noundef 124, ptr noundef nonnull @.str.8, ptr noundef %11) #5
  %.not19 = icmp eq i32 %14, 0
  br i1 %.not19, label %17, label %15

15:                                               ; preds = %8
  %16 = tail call i32 @test_ptr(ptr noundef nonnull @.str, i32 noundef 124, ptr noundef nonnull @.str.9, ptr noundef %13) #5
  %.not20 = icmp eq i32 %16, 0
  br i1 %.not20, label %17, label %20

17:                                               ; preds = %15, %8
  %18 = tail call i32 @BIO_free(ptr noundef %11) #5
  %19 = tail call i32 @BIO_free(ptr noundef %13) #5
  br label %28

20:                                               ; preds = %15
  tail call void @SSL_set_bio(ptr noundef %6, ptr noundef %11, ptr noundef %13) #5
  %21 = tail call i32 @SSL_connect(ptr noundef %6) #5
  %22 = tail call i32 @test_int_le(ptr noundef nonnull @.str, i32 noundef 132, ptr noundef nonnull @.str.10, ptr noundef nonnull @.str.11, i32 noundef %21, i32 noundef 0) #5
  %.not21 = icmp eq i32 %22, 0
  br i1 %.not21, label %28, label %23

23:                                               ; preds = %20
  %24 = call fastcc i32 @get_sni_from_client_hello(ptr noundef %13, ptr noundef %1)
  %25 = tail call i32 @test_true(ptr noundef nonnull @.str, i32 noundef 135, ptr noundef nonnull @.str.12, i32 noundef %24) #5
  %.not22 = icmp eq i32 %25, 0
  %.pre = load ptr, ptr %1, align 8, !tbaa !4
  br i1 %.not22, label %28, label %26

26:                                               ; preds = %23
  %27 = tail call i32 @test_str_eq(ptr noundef nonnull @.str, i32 noundef 138, ptr noundef nonnull @.str.13, ptr noundef nonnull @.str.14, ptr noundef %.pre, ptr noundef nonnull @.str.15) #5
  %.not23 = icmp ne i32 %27, 0
  %spec.select = zext i1 %.not23 to i32
  br label %28

28:                                               ; preds = %26, %23, %20, %5, %0, %17
  %29 = phi ptr [ %.pre, %23 ], [ null, %20 ], [ null, %17 ], [ null, %5 ], [ null, %0 ], [ %.pre, %26 ]
  %.016 = phi ptr [ %6, %23 ], [ %6, %20 ], [ %6, %17 ], [ %6, %5 ], [ null, %0 ], [ %6, %26 ]
  %.0 = phi i32 [ 0, %23 ], [ 0, %20 ], [ 0, %17 ], [ 0, %5 ], [ 0, %0 ], [ %spec.select, %26 ]
  tail call void @CRYPTO_free(ptr noundef %29, ptr noundef nonnull @.str, i32 noundef 143) #5
  tail call void @SSL_free(ptr noundef %.016) #5
  tail call void @SSL_CTX_free(ptr noundef %3) #5
  call void @llvm.lifetime.end.p0(i64 8, ptr nonnull %1) #5
  ret i32 %.0
}